; ModuleID = 'source-C-CXX/61/2780.c'
source_filename = "source-C-CXX/61/2780.c"
target datalayout = "e-m:e-p270:32:32-p271:32:32-p272:64:64-i64:64-f80:128-n8:16:32:64-S128"
target triple = "x86_64-pc-linux-gnu"

@.str = private unnamed_addr constant [3 x i8] c"%s\00", align 1

; Function Attrs: nounwind sspstrong uwtable
define dso_local i32 @main() local_unnamed_addr #0 {
  %1 = alloca [500 x i8], align 16
  %2 = alloca [500 x i8], align 16
  %3 = alloca [500 x i32], align 16
  %4 = getelementptr inbounds [500 x i8], [500 x i8]* %1, i64 0, i64 0
  call void @llvm.lifetime.start.p0i8(i64 500, i8* nonnull %4) #6
  %5 = getelementptr inbounds [500 x i8], [500 x i8]* %2, i64 0, i64 0
  call void @llvm.lifetime.start.p0i8(i64 500, i8* nonnull %5) #6
  %6 = call i32 (i8*, ...) bitcast (i32 (...)* @gets to i32 (i8*, ...)*)(i8* nonnull %4) #6
  %7 = call i64 @strlen(i8* noundef nonnull %4) #7
  %8 = trunc i64 %7 to i32
  %9 = bitcast [500 x i32]* %3 to i8*
  call void @llvm.lifetime.start.p0i8(i64 2000, i8* nonnull %9) #6
  call void @llvm.memset.p0i8.i64(i8* noundef nonnull align 16 dereferenceable(2000) %9, i8 0, i64 2000, i1 false)
  %10 = icmp sgt i32 %8, 0
  br i1 %10, label %11, label %50

11:                                               ; preds = %0
  %12 = shl i64 %7, 32
  %13 = ashr exact i64 %12, 32
  br label %15

14:                                               ; preds = %33
  br i1 %10, label %36, label %50

15:                                               ; preds = %11, %33
  %16 = phi i64 [ %13, %11 ], [ %18, %33 ]
  %17 = phi i32 [ 0, %11 ], [ %34, %33 ]
  %18 = add nsw i64 %16, -1
  %19 = getelementptr inbounds [500 x i8], [500 x i8]* %1, i64 0, i64 %18
  %20 = load i8, i8* %19, align 1, !tbaa !5
  %21 = icmp eq i8 %20, 32
  br i1 %21, label %22, label %33

22:                                               ; preds = %15
  %23 = add nsw i64 %16, -2
  %24 = getelementptr inbounds [500 x i8], [500 x i8]* %1, i64 0, i64 %23
  %25 = load i8, i8* %24, align 1, !tbaa !5
  %26 = icmp eq i8 %25, 32
  br i1 %26, label %27, label %33

27:                                               ; preds = %22
  %28 = getelementptr inbounds [500 x i32], [500 x i32]* %3, i64 0, i64 %18
  %29 = load i32, i32* %28, align 4, !tbaa !8
  %30 = add nsw i32 %29, 1
  %31 = getelementptr inbounds [500 x i32], [500 x i32]* %3, i64 0, i64 %23
  store i32 %30, i32* %31, align 4, !tbaa !8
  %32 = add nsw i32 %17, 1
  br label %33

33:                                               ; preds = %15, %27, %22
  %34 = phi i32 [ %32, %27 ], [ %17, %22 ], [ %17, %15 ]
  %35 = icmp sgt i64 %16, 1
  br i1 %35, label %15, label %14, !llvm.loop !10

36:                                               ; preds = %14, %36
  %37 = phi i64 [ %48, %36 ], [ 0, %14 ]
  %38 = phi i32 [ %47, %36 ], [ 0, %14 ]
  %39 = sext i32 %38 to i64
  %40 = getelementptr inbounds [500 x i32], [500 x i32]* %3, i64 0, i64 %39
  %41 = load i32, i32* %40, align 4, !tbaa !8
  %42 = add nsw i32 %41, %38
  %43 = sext i32 %42 to i64
  %44 = getelementptr inbounds [500 x i8], [500 x i8]* %1, i64 0, i64 %43
  %45 = load i8, i8* %44, align 1, !tbaa !5
  %46 = getelementptr inbounds [500 x i8], [500 x i8]* %2, i64 0, i64 %37
  store i8 %45, i8* %46, align 1, !tbaa !5
  %47 = add nsw i32 %42, 1
  %48 = add nuw i64 %37, 1
  %49 = icmp slt i32 %47, %8
  br i1 %49, label %36, label %50, !llvm.loop !12

50:                                               ; preds = %36, %0, %14
  %51 = phi i32 [ %34, %14 ], [ 0, %0 ], [ %34, %36 ]
  %52 = sub nsw i32 %8, %51
  %53 = sext i32 %52 to i64
  %54 = getelementptr inbounds [500 x i8], [500 x i8]* %2, i64 0, i64 %53
  store i8 0, i8* %54, align 1, !tbaa !5
  %55 = call i32 (i8*, ...) @printf(i8* nonnull dereferenceable(1) getelementptr inbounds ([3 x i8], [3 x i8]* @.str, i64 0, i64 0), i8* nonnull %5)
  call void @llvm.lifetime.end.p0i8(i64 2000, i8* nonnull %9) #6
  call void @llvm.lifetime.end.p0i8(i64 500, i8* nonnull %5) #6
  call void @llvm.lifetime.end.p0i8(i64 500, i8* nonnull %4) #6
  ret i32 0
}

; Function Attrs: argmemonly mustprogress nofree nosync nounwind willreturn
declare void @llvm.lifetime.start.p0i8(i64 immarg, i8* nocapture) #1

declare i32 @gets(...) local_unnamed_addr #2

; Function Attrs: argmemonly mustprogress nofree nounwind readonly willreturn
declare i64 @strlen(i8* nocapture) local_unnamed_addr #3

; Function Attrs: argmemonly mustprogress nofree nounwind willreturn writeonly
declare void @llvm.memset.p0i8.i64(i8* nocapture writeonly, i8, i64, i1 immarg) #4

; Function Attrs: nofree nounwind
declare noundef i32 @printf(i8* nocapture noundef readonly, ...) local_unnamed_addr #5

; Function Attrs: argmemonly mustprogress nofree nosync nounwind willreturn
declare void @llvm.lifetime.end.p0i8(i64 immarg, i8* nocapture) #1


!llvm.module.flags = !{!0, !1, !2, !3}
!llvm.ident = !{!4}

!0 = !{i32 1, !"wchar_size", i32 4}
!1 = !{i32 7, !"PIC Level", i32 2}
!2 = !{i32 7, !"PIE Level", i32 2}
!3 = !{i32 7, !"uwtable", i32 1}
!4 = !{!"clang version 13.0.0"}
!5 = !{!6, !6, i64 0}
!6 = !{!"omnipotent char", !7, i64 0}
!7 = !{!"Simple C/C++ TBAA"}
!8 = !{!9, !9, i64 0}
!9 = !{!"int", !6, i64 0}
!10 = distinct !{!10, !11}
!11 = !{!"llvm.loop.mustprogress"}
!12 = distinct !{!12, !11}
